; Function Attrs: nounwind uwtable
define double @compute_rho_estimate(ptr noundef readonly captures(none) %0) local_unnamed_addr #0 {
  %2 = load ptr, ptr %0, align 8
  %3 = getelementptr inbounds nuw i8, ptr %0, i64 24
  %4 = load ptr, ptr %3, align 8
  %5 = getelementptr inbounds nuw i8, ptr %4, i64 208
  %6 = load double, ptr %5, align 8
  %7 = getelementptr inbounds nuw i8, ptr %4, i64 216
  %8 = load double, ptr %7, align 8
  %9 = getelementptr inbounds nuw i8, ptr %4, i64 64
  %10 = load ptr, ptr %9, align 8
  %11 = tail call double @OSQPVectorf_norm_inf(ptr noundef %10) #9
  %12 = getelementptr inbounds nuw i8, ptr %4, i64 112
  %13 = load ptr, ptr %12, align 8
  %14 = tail call double @OSQPVectorf_norm_inf(ptr noundef %13) #9
  %15 = fcmp ogt double %11, %14
  %16 = select i1 %15, double %11, double %14
  %17 = fadd double %16, 0x39B4484BFEEBC29F
  %18 = fdiv double %6, %17
  %19 = load ptr, ptr %4, align 8
  %20 = getelementptr inbounds nuw i8, ptr %19, i64 32
  %21 = load ptr, ptr %20, align 8
  %22 = tail call double @OSQPVectorf_norm_inf(ptr noundef %21) #9
  %23 = getelementptr inbounds nuw i8, ptr %4, i64 128
  %24 = load ptr, ptr %23, align 8
  %25 = tail call double @OSQPVectorf_norm_inf(ptr noundef %24) #9
  %26 = fcmp ogt double %22, %25
  %27 = select i1 %26, double %22, double %25
  %28 = getelementptr inbounds nuw i8, ptr %4, i64 120
  %29 = load ptr, ptr %28, align 8
  %30 = tail call double @OSQPVectorf_norm_inf(ptr noundef %29) #9
  %31 = fcmp ogt double %27, %30
  %32 = select i1 %31, double %27, double %30
  %33 = fadd double %32, 0x39B4484BFEEBC29F
  %34 = fdiv double %8, %33
  %35 = getelementptr inbounds nuw i8, ptr %2, i64 64
  %36 = load double, ptr %35, align 8
  %37 = fdiv double %18, %34
  %38 = tail call double @sqrt(double noundef %37) #9
  %39 = fmul double %36, %38
  %40 = fcmp ogt double %39, 0x3EB0C6F7A0B5ED8D
  %41 = select i1 %40, double %39, double 0x3EB0C6F7A0B5ED8D
  %42 = fcmp olt double %41, 1.000000e+06
  %43 = select i1 %42, double %41, double 1.000000e+06
  ret double %43
}